target datalayout = "e-m:e-p270:32:32-p271:32:32-p272:64:64-i64:64-i128:128-f80:128-n8:16:32:64-S128"
target triple = "x86_64-pc-linux-gnu"

%struct.acct_gather_energy = type { i32, i64, i64, i32, i64, i64, i64 }

@plugin_name = dso_local constant [31 x i8] c"AcctGatherEnergy IBMAEM plugin\00", align 16
@plugin_type = dso_local constant [26 x i8] c"acct_gather_energy/ibmaem\00", align 16
@local_energy = internal global ptr null, align 8
@acct_gather_energy_p_conf_set.flag_init = internal global i8 0, align 1
@.str.2 = private unnamed_addr constant [18 x i8] c"%s: %s: %s loaded\00", align 1
@__func__.acct_gather_energy_p_conf_set = private unnamed_addr constant [30 x i8] c"acct_gather_energy_p_conf_set\00", align 1

; Function Attrs: nounwind uwtable
define dso_local void @acct_gather_energy_p_conf_set(i32 noundef %0, ptr noundef %1) #0 {
  %3 = alloca i32, align 4
  %4 = alloca ptr, align 8
  store i32 %0, ptr %3, align 4
  store ptr %1, ptr %4, align 8
  %5 = call zeroext i1 @slurm_running_in_slurmd_stepd()
  br i1 %5, label %7, label %6

6:                                                ; preds = %2
  br label %29

7:                                                ; preds = %2
  %8 = load i8, ptr @acct_gather_energy_p_conf_set.flag_init, align 1, !range !8, !noundef !9
  %9 = trunc i8 %8 to i1
  br i1 %9, label %20, label %10

10:                                               ; preds = %7
  store i8 1, ptr @acct_gather_energy_p_conf_set.flag_init, align 1
  %11 = call ptr @acct_gather_energy_alloc(i16 noundef zeroext 1)
  store ptr %11, ptr @local_energy, align 8
  %12 = call i64 @_get_latest_stats(i32 noundef 0)
  %13 = icmp ne i64 %12, 0
  br i1 %13, label %17, label %14

14:                                               ; preds = %10
  %15 = load ptr, ptr @local_energy, align 8
  %16 = getelementptr inbounds nuw %struct.acct_gather_energy, ptr %15, i32 0, i32 3
  store i32 -2, ptr %16, align 8
  br label %19

17:                                               ; preds = %10
  %18 = load ptr, ptr @local_energy, align 8
  call void @_get_joules_task(ptr noundef %18)
  br label %19

19:                                               ; preds = %17, %14
  br label %20

20:                                               ; preds = %19, %7
  br label %21

21:                                               ; preds = %20
  br label %22

22:                                               ; preds = %21
  %23 = call i32 @slurm_get_log_level()
  %24 = icmp sge i32 %23, 5
  br i1 %24, label %25, label %26

25:                                               ; preds = %22
  call void (i32, ptr, ...) @slurm_log_var(i32 noundef 5, ptr noundef @.str.2, ptr noundef @plugin_type, ptr noundef @__func__.acct_gather_energy_p_conf_set, ptr noundef @plugin_name)
  br label %26

26:                                               ; preds = %25, %22
  br label %27

27:                                               ; preds = %26
  br label %28

28:                                               ; preds = %27
  br label %29

29:                                               ; preds = %28, %6
  ret void
}