; Function Attrs: nounwind uwtable
define dso_local void @acct_gather_energy_p_conf_set(i32 noundef %0, ptr noundef readnone captures(none) %1) local_unnamed_addr #0 {
  %3 = tail call zeroext i1 @slurm_running_in_slurmd_stepd() #8
  br i1 %3, label %4, label %16

4:                                                ; preds = %2
  %.b1 = load i1, ptr @acct_gather_energy_p_conf_set.flag_init, align 1
  br i1 %.b1, label %12, label %5

5:                                                ; preds = %4
  store i1 true, ptr @acct_gather_energy_p_conf_set.flag_init, align 1
  %6 = tail call ptr @acct_gather_energy_alloc(i16 noundef zeroext 1) #8
  store ptr %6, ptr @local_energy, align 8
  %7 = tail call fastcc i64 @_get_latest_stats(i32 noundef 0)
  %.not = icmp eq i64 %7, 0
  %8 = load ptr, ptr @local_energy, align 8
  br i1 %.not, label %9, label %11

9:                                                ; preds = %5
  %10 = getelementptr inbounds nuw i8, ptr %8, i64 24
  store i32 -2, ptr %10, align 8
  br label %12

11:                                               ; preds = %5
  tail call fastcc void @_get_joules_task(ptr noundef %8)
  br label %12

12:                                               ; preds = %9, %11, %4
  %13 = tail call i32 @slurm_get_log_level() #8
  %14 = icmp sgt i32 %13, 4
  br i1 %14, label %15, label %16

15:                                               ; preds = %12
  tail call void (i32, ptr, ...) @slurm_log_var(i32 noundef 5, ptr noundef nonnull @.str.2, ptr noundef nonnull @plugin_type, ptr noundef nonnull @__func__.acct_gather_energy_p_conf_set, ptr noundef nonnull @plugin_name) #8
  br label %16

16:                                               ; preds = %12, %15, %2
  ret void
}